Certificate:
    Data:
        Version: 3 (0x2)
        Serial Number:
            5c:a1:62:27:1d:d0:59:30:fb:51:60:27:04:2e:c5:84
        Signature Algorithm: sha256WithRSAEncryption
        Issuer: C=RU, ST=Sverdlovsk region, L=Yekaterinburg, O=Askug Ltd., OU=IT Department, CN=ca.askug.ru/emailAddress=admin@askug.net
        Validity
            Not Before: Jul  5 08:40:41 2021 GMT
            Not After : Jun 19 08:40:41 2024 GMT
        Subject: C=RU, ST=Sverdlovsk region, L=Yekaterinburg, O=Askug Ltd., OU=IT Department, CN=1.ldap.askug.net/emailAddress=admin@askug.net
        Subject Public Key Info:
            Public Key Algorithm: rsaEncryption
                RSA Public-Key: (4096 bit)
                Modulus:
                    00:a2:8f:3a:eb:df:ac:7c:25:75:4e:46:ce:60:64:
                    72:34:2b:f4:52:c7:c9:51:3a:a3:4f:c3:ce:7e:a9:
                    ca:e6:3d:78:1b:02:d0:42:10:ed:a8:54:0b:a9:58:
                    83:c4:c8:3b:9f:3e:19:de:35:5c:20:c0:14:d2:78:
                    59:5f:17:34:44:e6:61:4c:e1:5d:a5:23:75:86:91:
                    03:17:e9:a5:23:ec:cc:d3:84:40:64:3b:ea:45:c9:
                    33:d6:0e:48:c7:95:f4:79:97:d5:57:0a:9e:d4:1d:
                    ec:81:ff:22:bb:a2:70:2e:cc:f7:46:61:d4:41:a4:
                    27:6c:de:fa:71:75:a7:66:a9:c1:78:86:b9:1e:94:
                    06:77:31:c8:46:e9:1f:fe:f2:af:58:a2:de:6d:93:
                    3b:e1:67:2f:1e:c0:8a:45:06:ae:fa:69:5e:1f:ac:
                    45:38:62:e1:50:57:75:09:e9:f9:a6:36:06:77:6b:
                    8f:e4:fd:f4:68:de:f6:fb:e5:ee:77:fb:3f:21:8e:
                    3b:f4:b4:16:77:94:5a:3f:14:f9:ac:ed:0b:66:49:
                    1d:23:b3:44:81:b4:33:1d:3a:e5:09:0d:fa:58:7e:
                    f2:1d:4a:a8:7d:f1:91:71:3a:04:e5:d2:c5:66:b9:
                    c7:6b:59:af:9a:ba:87:5e:2b:91:bb:9d:35:6b:ce:
                    89:7a:e3:91:26:15:c1:74:6a:2a:47:a3:36:9a:92:
                    2f:40:4e:62:d3:ee:ac:dc:63:6b:f2:c9:60:81:80:
                    2f:c4:fe:f4:ae:ca:0d:8a:c1:a0:53:5e:e6:7c:eb:
                    3a:4e:3d:75:dc:60:50:0c:16:f7:6d:01:da:50:31:
                    7a:2f:ff:05:b1:a7:a3:1b:14:44:a6:45:cf:05:54:
                    c3:ed:f3:fc:b7:80:a6:f5:5d:72:bf:c7:1f:8c:8d:
                    4d:ee:67:85:7d:33:79:f0:c3:0b:88:df:ae:d7:7f:
                    e7:57:ec:4e:bc:a0:ac:30:58:90:d4:8f:58:ad:a1:
                    e7:94:1a:c0:cd:3c:7e:8e:5f:e1:ae:ce:ac:a8:97:
                    52:70:5a:ac:59:61:1e:fb:c4:05:a2:5f:50:12:96:
                    b5:fb:b2:20:60:cf:5e:92:f3:7d:1a:52:a9:5d:c8:
                    45:99:93:81:de:ca:ad:9a:3b:f8:e4:14:69:78:31:
                    0d:6c:76:21:e5:1e:20:fc:ab:90:ac:62:c5:07:db:
                    c3:ab:b4:cd:ee:c7:46:84:15:8d:c5:a0:65:7b:92:
                    04:f9:0f:ec:a8:e6:4e:62:ed:3e:f0:a8:72:aa:ee:
                    ab:a4:0f:70:43:b1:78:cb:ba:ea:3f:7e:64:f5:06:
                    02:b1:17:4d:55:41:11:d7:5b:0b:10:ab:9a:36:5e:
                    a8:cc:75
                Exponent: 65537 (0x10001)
        X509v3 extensions:
            X509v3 CRL Distribution Points: 

                Full Name:
                  URI:http://askug.net/pki/crl.pem

            X509v3 Basic Constraints: 
                CA:FALSE
            X509v3 Subject Key Identifier: 
                23:E1:74:B6:38:6B:17:B3:A5:19:62:23:6F:53:7E:71:BB:06:1B:0D
            X509v3 Authority Key Identifier: 
                keyid:80:E1:34:AE:6F:37:4A:DC:74:EA:C2:DA:EA:D1:34:B8:70:F9:A0:FE
                DirName:/C=RU/ST=Sverdlovsk region/L=Yekaterinburg/O=Askug Ltd./OU=IT Department/CN=ca.askug.ru/emailAddress=admin@askug.net
                serial:5C:23:81:70:A5:41:92:94:DC:51:F7:91:C3:E2:AE:94:33:57:37:21

            X509v3 Extended Key Usage: 
                TLS Web Server Authentication
            X509v3 Key Usage: 
                Digital Signature, Non Repudiation, Key Encipherment, Data Encipherment
            Netscape Comment: 
                Askug CA Generated Certificate
            Netscape Cert Type: 
                SSL Server
            X509v3 Subject Alternative Name: 
                DNS:1.ldap.askug.net
    Signature Algorithm: sha256WithRSAEncryption
         4b:32:2a:d2:14:f8:1f:60:80:49:50:f5:8b:8c:2b:f0:47:13:
         bf:bb:22:d1:ed:7e:5b:04:46:f0:3e:b9:dd:24:d5:bb:cf:b7:
         75:ee:bc:c1:e1:7f:2c:d6:8f:6d:52:e5:c5:d7:dd:30:72:62:
         3b:e0:6e:00:2e:d2:29:af:02:90:76:f9:0f:58:2a:52:29:9c:
         ea:ff:82:59:b4:07:25:9e:c0:8c:70:97:7f:6d:87:4a:2e:7b:
         5c:93:d1:ad:10:14:c3:72:bd:89:88:19:4f:4f:17:10:bf:4f:
         ac:98:9d:2c:a7:74:e9:2b:ef:7d:bb:28:e8:8d:7f:4f:91:e5:
         38:08:3f:c7:81:d8:3e:3b:05:56:58:3a:79:a7:56:c0:e2:f0:
         8f:d2:50:5c:f6:c5:c2:70:9d:da:2b:26:c7:86:13:91:ce:d6:
         d6:b0:a0:b1:55:0e:57:30:f3:31:4a:98:2e:db:bd:7b:fc:58:
         43:2f:cc:71:87:58:51:09:75:79:a4:cf:d0:20:32:da:3e:c3:
         ae:eb:35:0e:9b:2c:5c:8d:f2:b4:1e:b0:4b:6d:70:2e:b2:78:
         f3:12:48:9c:8d:16:67:cf:17:3c:8c:be:c6:05:31:5a:d5:b6:
         f9:34:a9:23:92:c9:19:5e:5f:ed:35:a8:48:dd:f7:53:4b:ff:
         07:54:22:31:89:5b:21:fc:e4:eb:18:ee:22:fd:d4:a5:89:3f:
         a2:69:80:2f:19:aa:87:25:e1:6e:0d:61:3c:aa:e8:8a:c2:b6:
         ba:ca:d1:56:88:70:25:58:65:a2:49:6f:e4:33:52:c1:82:f3:
         fc:4e:56:e1:5b:15:e8:ac:5b:0c:d5:0a:be:49:7b:c8:88:c0:
         34:3d:20:22:f2:40:18:ed:65:d1:18:65:15:2f:81:17:98:d6:
         96:a2:9b:3f:1d:b0:d8:39:71:c8:d9:34:68:06:6c:a2:f8:66:
         70:b7:a6:bb:56:18:3d:a2:a7:00:d2:82:90:a7:2e:f5:6a:f2:
         bf:f0:33:7f:3f:0b:9c:02:ba:7b:f2:b6:9f:29:b6:29:a1:87:
         31:bf:d0:b6:af:2e:e5:9a:28:d1:cc:7c:d9:f8:72:70:71:af:
         a8:5b:ca:d3:f6:ea:26:23:59:0c:07:8c:5d:f4:29:99:ba:eb:
         f4:1c:40:a1:33:e4:8e:2a:a3:b6:13:d6:47:15:07:9d:1c:03:
         59:58:66:3f:2f:6d:8b:b0:cc:38:aa:0f:82:0f:7e:cf:7b:f8:
         ab:c0:d8:bb:db:7c:ea:6f:ee:4c:bb:04:55:f5:ca:51:e3:27:
         25:b3:54:7b:56:70:fd:55:81:31:3a:b9:42:a0:5b:dd:b2:c4:
         da:1b:2c:bd:02:ff:e4:07
-----BEGIN CERTIFICATE-----
MIIHoDCCBYigAwIBAgIQXKFiJx3QWTD7UWAnBC7FhDANBgkqhkiG9w0BAQsFADCB
pDELMAkGA1UEBhMCUlUxGjAYBgNVBAgMEVN2ZXJkbG92c2sgcmVnaW9uMRYwFAYD
VQQHDA1ZZWthdGVyaW5idXJnMRMwEQYDVQQKDApBc2t1ZyBMdGQuMRYwFAYDVQQL
DA1JVCBEZXBhcnRtZW50MRQwEgYDVQQDDAtjYS5hc2t1Zy5ydTEeMBwGCSqGSIb3
DQEJARYPYWRtaW5AYXNrdWcubmV0MB4XDTIxMDcwNTA4NDA0MVoXDTI0MDYxOTA4
NDA0MVowgakxCzAJBgNVBAYTAlJVMRowGAYDVQQIDBFTdmVyZGxvdnNrIHJlZ2lv
bjEWMBQGA1UEBwwNWWVrYXRlcmluYnVyZzETMBEGA1UECgwKQXNrdWcgTHRkLjEW
MBQGA1UECwwNSVQgRGVwYXJ0bWVudDEZMBcGA1UEAwwQMS5sZGFwLmFza3VnLm5l
dDEeMBwGCSqGSIb3DQEJARYPYWRtaW5AYXNrdWcubmV0MIICIjANBgkqhkiG9w0B
AQEFAAOCAg8AMIICCgKCAgEAoo8669+sfCV1TkbOYGRyNCv0UsfJUTqjT8POfqnK
5j14GwLQQhDtqFQLqViDxMg7nz4Z3jVcIMAU0nhZXxc0ROZhTOFdpSN1hpEDF+ml
I+zM04RAZDvqRckz1g5Ix5X0eZfVVwqe1B3sgf8iu6JwLsz3RmHUQaQnbN76cXWn
ZqnBeIa5HpQGdzHIRukf/vKvWKLebZM74WcvHsCKRQau+mleH6xFOGLhUFd1Cen5
pjYGd2uP5P30aN72++Xud/s/IY479LQWd5RaPxT5rO0LZkkdI7NEgbQzHTrlCQ36
WH7yHUqoffGRcToE5dLFZrnHa1mvmrqHXiuRu501a86JeuORJhXBdGoqR6M2mpIv
QE5i0+6s3GNr8slggYAvxP70rsoNisGgU17mfOs6Tj113GBQDBb3bQHaUDF6L/8F
saejGxREpkXPBVTD7fP8t4Cm9V1yv8cfjI1N7meFfTN58MMLiN+u13/nV+xOvKCs
MFiQ1I9YraHnlBrAzTx+jl/hrs6sqJdScFqsWWEe+8QFol9QEpa1+7IgYM9ekvN9
GlKpXchFmZOB3sqtmjv45BRpeDENbHYh5R4g/KuQrGLFB9vDq7TN7sdGhBWNxaBl
e5IE+Q/sqOZOYu0+8Khyqu6rpA9wQ7F4y7rqP35k9QYCsRdNVUER11sLEKuaNl6o
zHUCAwEAAaOCAcUwggHBMC0GA1UdHwQmMCQwIqAgoB6GHGh0dHA6Ly9hc2t1Zy5u
ZXQvcGtpL2NybC5wZW0wCQYDVR0TBAIwADAdBgNVHQ4EFgQUI+F0tjhrF7OlGWIj
b1N+cbsGGw0wgeQGA1UdIwSB3DCB2YAUgOE0rm83Stx06sLa6tE0uHD5oP6hgaqk
gacwgaQxCzAJBgNVBAYTAlJVMRowGAYDVQQIDBFTdmVyZGxvdnNrIHJlZ2lvbjEW
MBQGA1UEBwwNWWVrYXRlcmluYnVyZzETMBEGA1UECgwKQXNrdWcgTHRkLjEWMBQG
A1UECwwNSVQgRGVwYXJ0bWVudDEUMBIGA1UEAwwLY2EuYXNrdWcucnUxHjAcBgkq
hkiG9w0BCQEWD2FkbWluQGFza3VnLm5ldIIUXCOBcKVBkpTcUfeRw+KulDNXNyEw
EwYDVR0lBAwwCgYIKwYBBQUHAwEwCwYDVR0PBAQDAgTwMC0GCWCGSAGG+EIBDQQg
Fh5Bc2t1ZyBDQSBHZW5lcmF0ZWQgQ2VydGlmaWNhdGUwEQYJYIZIAYb4QgEBBAQD
AgZAMBsGA1UdEQQUMBKCEDEubGRhcC5hc2t1Zy5uZXQwDQYJKoZIhvcNAQELBQAD
ggIBAEsyKtIU+B9ggElQ9YuMK/BHE7+7ItHtflsERvA+ud0k1bvPt3XuvMHhfyzW
j21S5cXX3TByYjvgbgAu0imvApB2+Q9YKlIpnOr/glm0ByWewIxwl39th0oue1yT
0a0QFMNyvYmIGU9PFxC/T6yYnSyndOkr7327KOiNf0+R5TgIP8eB2D47BVZYOnmn
VsDi8I/SUFz2xcJwndorJseGE5HO1tawoLFVDlcw8zFKmC7bvXv8WEMvzHGHWFEJ
dXmkz9AgMto+w67rNQ6bLFyN8rQesEttcC6yePMSSJyNFmfPFzyMvsYFMVrVtvk0
qSOSyRleX+01qEjd91NL/wdUIjGJWyH85OsY7iL91KWJP6JpgC8Zqocl4W4NYTyq
6IrCtrrK0VaIcCVYZaJJb+QzUsGC8/xOVuFbFeisWwzVCr5Je8iIwDQ9ICLyQBjt
ZdEYZRUvgReY1paimz8dsNg5ccjZNGgGbKL4ZnC3prtWGD2ipwDSgpCnLvVq8r/w
M38/C5wCunvytp8ptimhhzG/0LavLuWaKNHMfNn4cnBxr6hbytP26iYjWQwHjF30
KZm66/QcQKEz5I4qo7YT1kcVB50cA1lYZj8vbYuwzDiqD4IPfs97+KvA2LvbfOpv
7ky7BFX1ylHjJyWzVHtWcP1VgTE6uUKgW92yxNobLL0C/+QH
-----END CERTIFICATE-----
