Certificate:
    Data:
        Version: 3 (0x2)
        Serial Number:
            d0:85:e8:25:35:68:f4:ce:3d:3c:a5:0c:bc:87:bc:18
        Signature Algorithm: sha256WithRSAEncryption
        Issuer: C=RU, ST=Sverdlovsk region, L=Yekaterinburg, O=Askug Ltd., OU=IT Department, CN=ca.askug.ru/emailAddress=admin@askug.net
        Validity
            Not Before: Jul  5 08:41:13 2021 GMT
            Not After : Jun 19 08:41:13 2024 GMT
        Subject: C=RU, ST=Sverdlovsk region, L=Yekaterinburg, O=Askug Ltd., OU=IT Department, CN=2.ldap.askug.net/emailAddress=admin@askug.net
        Subject Public Key Info:
            Public Key Algorithm: rsaEncryption
                RSA Public-Key: (4096 bit)
                Modulus:
                    00:b3:6f:1d:82:a0:79:68:14:ea:88:0c:ec:53:30:
                    0e:c5:90:1f:fa:bf:1a:3a:b4:01:10:7a:a2:55:c2:
                    a2:af:8b:59:2c:14:41:6c:57:59:50:64:32:6a:51:
                    e8:07:3d:bb:ca:fa:e3:44:92:90:82:51:00:77:1c:
                    af:bc:dc:a6:61:13:7d:cc:e2:f6:e1:40:8d:aa:6f:
                    63:da:84:2c:ab:77:12:63:89:58:f4:a7:c9:ab:83:
                    5f:5c:b3:11:53:2a:88:01:d4:b3:e6:49:4e:7d:ef:
                    96:37:10:45:d0:e9:c8:e8:69:dd:83:a8:00:cf:f5:
                    8b:c0:a6:0a:08:ee:11:c2:86:7b:37:7d:2c:84:8b:
                    9d:1a:a4:20:8b:85:3d:f5:2e:4e:fb:12:ab:d9:b1:
                    b8:a2:0a:26:6c:34:ab:cf:07:05:a0:3e:33:e3:4d:
                    f8:b3:ba:c0:09:18:41:d4:b6:80:a3:5d:6a:f5:25:
                    b5:43:b2:70:85:07:2e:e1:af:58:ce:15:d4:10:d6:
                    79:9c:d5:fc:30:1e:35:3c:4f:dd:16:41:8b:2f:c8:
                    ba:7f:0b:c8:ab:66:a4:e3:ae:a1:5b:33:1f:bd:1f:
                    fc:9b:01:84:d4:99:4d:8e:81:30:b5:6a:2a:6e:fc:
                    a7:48:8d:f1:22:4a:3a:2e:27:26:c1:e5:63:f3:d7:
                    78:77:f3:06:07:e3:63:ef:48:57:f1:ef:df:00:c0:
                    84:75:0d:7d:5a:ed:66:86:c5:48:81:25:cd:7f:4c:
                    b8:7d:b2:d0:f2:2a:88:af:9f:b3:0d:46:1b:be:6a:
                    f2:36:3d:35:9e:5e:bd:cf:af:3a:43:2d:62:0a:b5:
                    9e:7b:0d:3f:3d:6f:84:81:47:bf:66:7f:a5:18:9d:
                    47:83:40:39:77:9c:38:fe:df:a3:5d:08:bf:a5:b1:
                    c0:d7:2d:1b:a1:44:e2:bf:15:5f:40:1c:24:8d:0a:
                    62:4f:e6:36:9a:81:4f:0b:77:5c:4e:5a:0a:e8:70:
                    26:a2:18:ab:1b:e4:a3:90:50:c3:b5:c8:1f:74:bc:
                    be:84:0e:d0:20:81:9b:33:4d:c2:98:41:e7:5d:d9:
                    1f:6e:6d:f9:09:0a:11:fa:e0:1b:02:8d:cb:4c:2c:
                    4f:c7:07:8a:3d:5f:31:f4:46:5b:7d:0b:06:fe:56:
                    92:6a:10:80:fb:84:d1:fa:af:41:d5:78:06:ec:5f:
                    f3:e3:88:ea:a9:0c:0c:05:51:7c:8a:2f:f5:a8:55:
                    6a:51:4a:c6:06:f2:34:df:c4:2b:2c:d9:53:db:56:
                    34:67:85:19:fb:10:5c:a3:35:13:0c:a9:1c:1b:6e:
                    5d:b3:67:d0:77:fe:9c:8e:a8:6c:ca:a8:dd:7e:78:
                    41:ec:09
                Exponent: 65537 (0x10001)
        X509v3 extensions:
            X509v3 CRL Distribution Points: 

                Full Name:
                  URI:http://askug.net/pki/crl.pem

            X509v3 Basic Constraints: 
                CA:FALSE
            X509v3 Subject Key Identifier: 
                D3:25:29:6B:BE:03:0E:F1:7E:D8:42:56:54:D0:29:11:63:97:F7:C9
            X509v3 Authority Key Identifier: 
                keyid:80:E1:34:AE:6F:37:4A:DC:74:EA:C2:DA:EA:D1:34:B8:70:F9:A0:FE
                DirName:/C=RU/ST=Sverdlovsk region/L=Yekaterinburg/O=Askug Ltd./OU=IT Department/CN=ca.askug.ru/emailAddress=admin@askug.net
                serial:5C:23:81:70:A5:41:92:94:DC:51:F7:91:C3:E2:AE:94:33:57:37:21

            X509v3 Extended Key Usage: 
                TLS Web Server Authentication
            X509v3 Key Usage: 
                Digital Signature, Non Repudiation, Key Encipherment, Data Encipherment
            Netscape Comment: 
                Askug CA Generated Certificate
            Netscape Cert Type: 
                SSL Server
            X509v3 Subject Alternative Name: 
                DNS:2.ldap.askug.net
    Signature Algorithm: sha256WithRSAEncryption
         2a:3a:07:01:da:d1:d0:af:14:6d:c5:97:81:c8:51:d8:4c:16:
         64:a1:ae:e5:64:a1:cc:07:3f:c5:24:02:1f:7a:26:5f:dc:48:
         1d:ee:8c:02:d1:18:62:bb:2c:7a:04:2c:e1:90:ea:98:d7:ed:
         88:e4:35:71:83:43:4c:25:7f:39:82:da:2b:0c:13:2e:39:0c:
         c9:17:00:6e:83:83:30:04:bd:86:37:17:2d:1b:f4:97:92:29:
         3f:42:bb:90:bd:86:ca:cb:5b:78:d6:be:c0:c5:22:67:c5:15:
         d3:f7:cc:59:92:3e:ee:e3:d6:88:5d:72:b5:2c:0a:cb:a6:9d:
         86:2e:ce:09:85:19:bb:71:59:24:45:85:65:b3:96:2c:7b:6d:
         06:5a:b1:7b:00:ec:c5:bf:2e:46:7b:d6:e8:d2:f4:1d:3e:70:
         46:cb:79:92:0b:20:7b:c6:02:6c:02:02:ad:95:33:62:ce:9e:
         51:fe:fa:bc:55:99:de:4c:29:7e:a7:76:ec:b0:84:eb:50:3c:
         eb:d2:6d:7e:4f:25:ed:d6:1d:7e:f2:1b:e4:d2:6b:e5:47:b6:
         a8:e6:b2:6c:45:a1:2d:4a:77:2e:34:42:92:d5:3d:a5:c3:e1:
         b3:15:21:9d:dd:81:57:37:69:df:91:3d:05:01:c4:46:b7:b1:
         34:4e:79:7e:17:e5:ea:85:e1:7e:d9:73:0d:9f:f5:ce:fe:11:
         7e:d0:f3:67:48:35:1d:45:86:77:72:9f:e8:48:ab:6d:d4:c2:
         bb:b6:94:9a:56:ee:e8:bd:11:28:99:61:0f:8c:38:d6:9c:54:
         e3:34:ec:2e:87:15:61:9a:a6:92:d5:f2:55:81:39:18:82:b6:
         3b:e3:9d:ae:60:d2:43:f4:04:eb:aa:57:3e:0f:50:44:15:24:
         24:62:38:9b:d9:cb:97:56:bb:74:e7:e6:bd:8d:e7:fd:09:f1:
         f7:f4:2f:6f:ea:8d:9e:e5:e8:a5:9e:10:44:3e:a7:eb:a7:3d:
         e8:8c:98:ea:53:af:78:e6:6d:c8:7e:63:bc:d3:de:29:d9:ee:
         85:44:fb:c2:47:1b:49:37:1f:1b:d1:df:26:00:5b:49:28:89:
         59:cb:10:8e:5b:99:14:eb:9b:b7:6a:a4:30:47:34:2d:05:b3:
         36:48:0a:75:8a:f3:b9:06:09:b7:5b:b5:a3:64:72:82:a3:14:
         ac:e5:0e:41:6f:48:98:3f:ad:7b:17:b6:97:51:c4:b2:db:aa:
         70:e8:80:03:6a:38:f8:df:c1:79:77:9f:82:5d:b1:70:de:f8:
         24:12:38:e5:b3:ff:66:bc:18:55:39:2d:1b:1b:41:51:a1:61:
         d4:52:6c:f9:63:ac:85:b9
-----BEGIN CERTIFICATE-----
MIIHoTCCBYmgAwIBAgIRANCF6CU1aPTOPTylDLyHvBgwDQYJKoZIhvcNAQELBQAw
gaQxCzAJBgNVBAYTAlJVMRowGAYDVQQIDBFTdmVyZGxvdnNrIHJlZ2lvbjEWMBQG
A1UEBwwNWWVrYXRlcmluYnVyZzETMBEGA1UECgwKQXNrdWcgTHRkLjEWMBQGA1UE
CwwNSVQgRGVwYXJ0bWVudDEUMBIGA1UEAwwLY2EuYXNrdWcucnUxHjAcBgkqhkiG
9w0BCQEWD2FkbWluQGFza3VnLm5ldDAeFw0yMTA3MDUwODQxMTNaFw0yNDA2MTkw
ODQxMTNaMIGpMQswCQYDVQQGEwJSVTEaMBgGA1UECAwRU3ZlcmRsb3ZzayByZWdp
b24xFjAUBgNVBAcMDVlla2F0ZXJpbmJ1cmcxEzARBgNVBAoMCkFza3VnIEx0ZC4x
FjAUBgNVBAsMDUlUIERlcGFydG1lbnQxGTAXBgNVBAMMEDIubGRhcC5hc2t1Zy5u
ZXQxHjAcBgkqhkiG9w0BCQEWD2FkbWluQGFza3VnLm5ldDCCAiIwDQYJKoZIhvcN
AQEBBQADggIPADCCAgoCggIBALNvHYKgeWgU6ogM7FMwDsWQH/q/Gjq0ARB6olXC
oq+LWSwUQWxXWVBkMmpR6Ac9u8r640SSkIJRAHccr7zcpmETfczi9uFAjapvY9qE
LKt3EmOJWPSnyauDX1yzEVMqiAHUs+ZJTn3vljcQRdDpyOhp3YOoAM/1i8CmCgju
EcKGezd9LISLnRqkIIuFPfUuTvsSq9mxuKIKJmw0q88HBaA+M+NN+LO6wAkYQdS2
gKNdavUltUOycIUHLuGvWM4V1BDWeZzV/DAeNTxP3RZBiy/Iun8LyKtmpOOuoVsz
H70f/JsBhNSZTY6BMLVqKm78p0iN8SJKOi4nJsHlY/PXeHfzBgfjY+9IV/Hv3wDA
hHUNfVrtZobFSIElzX9MuH2y0PIqiK+fsw1GG75q8jY9NZ5evc+vOkMtYgq1nnsN
Pz1vhIFHv2Z/pRidR4NAOXecOP7fo10Iv6WxwNctG6FE4r8VX0AcJI0KYk/mNpqB
Twt3XE5aCuhwJqIYqxvko5BQw7XIH3S8voQO0CCBmzNNwphB513ZH25t+QkKEfrg
GwKNy0wsT8cHij1fMfRGW30LBv5WkmoQgPuE0fqvQdV4Buxf8+OI6qkMDAVRfIov
9ahValFKxgbyNN/EKyzZU9tWNGeFGfsQXKM1EwypHBtuXbNn0Hf+nI6obMqo3X54
QewJAgMBAAGjggHFMIIBwTAtBgNVHR8EJjAkMCKgIKAehhxodHRwOi8vYXNrdWcu
bmV0L3BraS9jcmwucGVtMAkGA1UdEwQCMAAwHQYDVR0OBBYEFNMlKWu+Aw7xfthC
VlTQKRFjl/fJMIHkBgNVHSMEgdwwgdmAFIDhNK5vN0rcdOrC2urRNLhw+aD+oYGq
pIGnMIGkMQswCQYDVQQGEwJSVTEaMBgGA1UECAwRU3ZlcmRsb3ZzayByZWdpb24x
FjAUBgNVBAcMDVlla2F0ZXJpbmJ1cmcxEzARBgNVBAoMCkFza3VnIEx0ZC4xFjAU
BgNVBAsMDUlUIERlcGFydG1lbnQxFDASBgNVBAMMC2NhLmFza3VnLnJ1MR4wHAYJ
KoZIhvcNAQkBFg9hZG1pbkBhc2t1Zy5uZXSCFFwjgXClQZKU3FH3kcPirpQzVzch
MBMGA1UdJQQMMAoGCCsGAQUFBwMBMAsGA1UdDwQEAwIE8DAtBglghkgBhvhCAQ0E
IBYeQXNrdWcgQ0EgR2VuZXJhdGVkIENlcnRpZmljYXRlMBEGCWCGSAGG+EIBAQQE
AwIGQDAbBgNVHREEFDASghAyLmxkYXAuYXNrdWcubmV0MA0GCSqGSIb3DQEBCwUA
A4ICAQAqOgcB2tHQrxRtxZeByFHYTBZkoa7lZKHMBz/FJAIfeiZf3Egd7owC0Rhi
uyx6BCzhkOqY1+2I5DVxg0NMJX85gtorDBMuOQzJFwBug4MwBL2GNxctG/SXkik/
QruQvYbKy1t41r7AxSJnxRXT98xZkj7u49aIXXK1LArLpp2GLs4JhRm7cVkkRYVl
s5Yse20GWrF7AOzFvy5Ge9bo0vQdPnBGy3mSCyB7xgJsAgKtlTNizp5R/vq8VZne
TCl+p3bssITrUDzr0m1+TyXt1h1+8hvk0mvlR7ao5rJsRaEtSncuNEKS1T2lw+Gz
FSGd3YFXN2nfkT0FAcRGt7E0Tnl+F+XqheF+2XMNn/XO/hF+0PNnSDUdRYZ3cp/o
SKtt1MK7tpSaVu7ovREomWEPjDjWnFTjNOwuhxVhmqaS1fJVgTkYgrY7452uYNJD
9ATrqlc+D1BEFSQkYjib2cuXVrt05+a9jef9CfH39C9v6o2e5eilnhBEPqfrpz3o
jJjqU6945m3IfmO8094p2e6FRPvCRxtJNx8b0d8mAFtJKIlZyxCOW5kU65u3aqQw
RzQtBbM2SAp1ivO5Bgm3W7WjZHKCoxSs5Q5Bb0iYP617F7aXUcSy26pw6IADajj4
38F5d5+CXbFw3vgkEjjls/9mvBhVOS0bG0FRoWHUUmz5Y6yFuQ==
-----END CERTIFICATE-----
