Certificate:
    Data:
        Version: 3 (0x2)
        Serial Number:
            c9:04:c4:36:65:62:61:cd:61:d8:e4:93:44:74:40:52
        Signature Algorithm: sha256WithRSAEncryption
        Issuer: C=RU, ST=Sverdlovsk region, L=Yekaterinburg, O=Askug Ltd., OU=IT Department, CN=ca.askug.ru/emailAddress=admin@askug.net
        Validity
            Not Before: Jul  5 08:41:21 2021 GMT
            Not After : Jun 19 08:41:21 2024 GMT
        Subject: C=RU, ST=Sverdlovsk region, L=Yekaterinburg, O=Askug Ltd., OU=IT Department, CN=3.ldap.askug.net/emailAddress=admin@askug.net
        Subject Public Key Info:
            Public Key Algorithm: rsaEncryption
                RSA Public-Key: (4096 bit)
                Modulus:
                    00:e9:18:0d:76:d8:e2:fc:85:86:5f:b4:f4:e9:56:
                    c4:43:4f:79:1b:50:6d:a5:ff:32:d2:e1:37:97:cb:
                    de:ab:b7:ca:aa:8b:fe:aa:e4:9a:e7:a1:eb:61:db:
                    fc:7a:3b:fd:ee:83:97:c0:2c:4d:70:65:2b:d6:4d:
                    ab:4c:19:dd:c6:b7:d0:97:10:eb:f8:ad:40:22:63:
                    34:c1:25:e5:58:07:48:68:c8:4c:da:33:72:9d:6d:
                    93:36:19:93:c8:75:82:26:d1:6c:7f:aa:17:cb:cd:
                    54:15:3e:00:ab:75:1a:56:eb:30:81:b7:43:ba:a2:
                    de:37:8f:36:3b:2d:c0:c0:98:ac:3f:32:4c:f4:41:
                    1b:12:f9:f1:55:bd:56:a5:b8:ec:20:b7:1d:0b:39:
                    1e:d2:6b:91:e8:a7:98:98:09:c6:df:7a:eb:0a:2b:
                    85:9a:ad:c5:e2:36:00:a1:ce:34:a7:09:97:fc:5b:
                    7c:e3:74:eb:35:9b:1b:1e:8c:63:86:55:d0:6a:8d:
                    aa:e7:df:43:fb:3d:0b:d8:91:91:2c:ed:42:2a:56:
                    e4:57:18:3e:eb:98:fa:37:c1:17:ad:2b:19:22:d9:
                    ef:c2:6e:7c:ac:80:f1:52:77:b1:21:fc:25:72:ee:
                    17:b0:f7:51:5b:ff:3b:e0:9d:4c:e0:70:61:cd:7f:
                    f9:95:0b:27:68:41:db:cf:84:a8:ea:fe:70:18:48:
                    94:af:1d:7e:37:f2:1c:98:00:e4:b9:aa:22:d4:a4:
                    52:29:bc:aa:a0:b1:f5:cb:f0:2b:ec:66:1d:36:27:
                    84:de:f3:32:f8:ef:70:10:76:d4:58:eb:de:42:7b:
                    f1:27:d0:bb:95:90:d3:90:ea:cb:9e:12:3f:38:a4:
                    30:e7:dd:b2:8b:b0:6c:00:45:27:76:f3:98:35:93:
                    49:91:19:8e:3e:c8:67:73:0d:cf:01:83:95:5c:e7:
                    f1:ca:c7:fe:aa:71:32:d1:58:08:a2:26:91:67:26:
                    31:73:85:b7:c3:3d:69:6a:37:4b:95:99:51:63:a5:
                    72:94:ee:fe:ab:16:53:51:ef:43:5d:ec:2a:06:88:
                    87:6f:33:37:8b:b1:20:d4:1a:55:a5:c8:31:00:9c:
                    95:ee:43:62:c8:9c:e4:98:2f:4f:a6:08:28:ba:ef:
                    c8:40:27:4d:f3:23:9b:93:12:54:15:62:da:c7:b6:
                    32:95:45:f0:3f:20:5c:0a:18:19:a6:a0:86:6d:c7:
                    20:f6:7e:21:2f:86:17:4d:28:a6:37:b0:61:0d:b9:
                    29:23:53:8a:0d:5f:3d:5d:a0:5d:52:f4:43:af:67:
                    37:38:a8:1d:1d:ff:13:8f:64:83:93:b8:b4:37:86:
                    8d:2a:17
                Exponent: 65537 (0x10001)
        X509v3 extensions:
            X509v3 CRL Distribution Points: 

                Full Name:
                  URI:http://askug.net/pki/crl.pem

            X509v3 Basic Constraints: 
                CA:FALSE
            X509v3 Subject Key Identifier: 
                20:56:E3:0D:82:76:5D:88:78:90:7D:D9:62:01:EA:C6:3D:4F:44:A7
            X509v3 Authority Key Identifier: 
                keyid:80:E1:34:AE:6F:37:4A:DC:74:EA:C2:DA:EA:D1:34:B8:70:F9:A0:FE
                DirName:/C=RU/ST=Sverdlovsk region/L=Yekaterinburg/O=Askug Ltd./OU=IT Department/CN=ca.askug.ru/emailAddress=admin@askug.net
                serial:5C:23:81:70:A5:41:92:94:DC:51:F7:91:C3:E2:AE:94:33:57:37:21

            X509v3 Extended Key Usage: 
                TLS Web Server Authentication
            X509v3 Key Usage: 
                Digital Signature, Non Repudiation, Key Encipherment, Data Encipherment
            Netscape Comment: 
                Askug CA Generated Certificate
            Netscape Cert Type: 
                SSL Server
            X509v3 Subject Alternative Name: 
                DNS:3.ldap.askug.net
    Signature Algorithm: sha256WithRSAEncryption
         14:89:c6:e9:74:63:be:39:b4:d1:31:c2:63:e9:ac:3d:b7:da:
         35:17:fd:81:4e:17:81:a7:98:91:aa:b4:3c:bb:b4:2a:a5:10:
         d8:8d:2b:02:24:36:d6:e0:6c:9a:8e:5c:51:4e:7b:20:b6:9e:
         54:81:3c:50:5b:d4:34:ae:67:53:e8:32:d8:5e:95:7c:63:94:
         c1:a5:92:78:7c:ee:49:dc:16:8c:41:a4:f0:91:b1:84:3d:a8:
         fa:b0:69:3d:a7:6b:67:b3:cf:82:a1:26:1b:51:9e:d2:b8:a6:
         38:45:0a:b4:b9:03:c0:e0:aa:1d:8b:b8:7e:db:46:40:90:32:
         64:5d:37:70:fd:d0:55:3e:f1:d3:9d:02:ac:59:99:a4:35:5a:
         81:91:1a:21:77:3e:cf:87:5d:9f:59:fa:b2:58:20:be:9f:0a:
         c6:51:96:ec:a6:78:2d:75:07:79:a6:3d:ff:e4:97:b5:08:62:
         48:84:55:33:de:23:cd:9d:e6:f9:ac:ef:e4:e0:15:45:e2:3c:
         36:3f:26:74:4f:da:dc:86:66:01:05:1d:af:6b:5e:69:a7:5e:
         10:ab:0e:87:c9:0f:4d:d6:cd:e6:50:fb:e0:87:b4:a9:51:d5:
         b9:74:9a:ac:ff:c1:2d:36:7a:ed:c0:6e:d1:29:6e:d4:97:df:
         78:0a:fb:02:32:58:69:7d:4f:37:06:d0:3c:b6:ec:e3:51:df:
         bd:a0:1d:20:cd:9c:66:9a:0e:fb:65:83:4c:26:9b:f4:71:1e:
         8a:09:bd:d0:77:4c:a6:d7:a0:74:e2:16:17:ce:4e:42:6e:c0:
         5c:ae:28:fb:10:c1:c6:0b:89:43:62:be:e9:7d:e4:39:f8:db:
         8e:1a:e0:8b:c5:5f:c4:35:3c:23:aa:5b:f9:98:65:3c:9f:c5:
         39:60:7b:7e:9c:2c:4c:90:98:ad:17:88:a6:f7:b6:a3:c7:d1:
         55:07:9e:e0:dc:51:c7:bf:bb:2f:da:61:31:08:0c:44:6e:5c:
         6c:ae:03:7e:27:e3:aa:cb:27:85:89:ed:d8:fb:b5:1f:cf:f7:
         ca:19:6b:e6:82:bc:77:03:d8:b4:16:a7:0c:84:06:de:50:61:
         d8:97:25:b1:f8:2f:65:6f:41:ac:0e:ba:5f:31:49:4b:ed:3f:
         18:f6:80:6f:cf:63:3c:b7:1d:cc:ac:0c:47:5f:54:55:55:35:
         08:ca:19:3c:4a:87:a8:83:2f:72:12:4a:4d:f3:4f:6d:4a:c6:
         6b:cc:b6:aa:f5:d6:d2:1e:e7:9c:66:f4:90:c4:f5:11:53:1b:
         92:fc:55:51:5f:74:e0:d7:15:f8:f6:86:a0:c8:48:49:a3:43:
         e3:fb:b9:6f:4f:1f:a6:d4
-----BEGIN CERTIFICATE-----
MIIHoTCCBYmgAwIBAgIRAMkExDZlYmHNYdjkk0R0QFIwDQYJKoZIhvcNAQELBQAw
gaQxCzAJBgNVBAYTAlJVMRowGAYDVQQIDBFTdmVyZGxvdnNrIHJlZ2lvbjEWMBQG
A1UEBwwNWWVrYXRlcmluYnVyZzETMBEGA1UECgwKQXNrdWcgTHRkLjEWMBQGA1UE
CwwNSVQgRGVwYXJ0bWVudDEUMBIGA1UEAwwLY2EuYXNrdWcucnUxHjAcBgkqhkiG
9w0BCQEWD2FkbWluQGFza3VnLm5ldDAeFw0yMTA3MDUwODQxMjFaFw0yNDA2MTkw
ODQxMjFaMIGpMQswCQYDVQQGEwJSVTEaMBgGA1UECAwRU3ZlcmRsb3ZzayByZWdp
b24xFjAUBgNVBAcMDVlla2F0ZXJpbmJ1cmcxEzARBgNVBAoMCkFza3VnIEx0ZC4x
FjAUBgNVBAsMDUlUIERlcGFydG1lbnQxGTAXBgNVBAMMEDMubGRhcC5hc2t1Zy5u
ZXQxHjAcBgkqhkiG9w0BCQEWD2FkbWluQGFza3VnLm5ldDCCAiIwDQYJKoZIhvcN
AQEBBQADggIPADCCAgoCggIBAOkYDXbY4vyFhl+09OlWxENPeRtQbaX/MtLhN5fL
3qu3yqqL/qrkmueh62Hb/Ho7/e6Dl8AsTXBlK9ZNq0wZ3ca30JcQ6/itQCJjNMEl
5VgHSGjITNozcp1tkzYZk8h1gibRbH+qF8vNVBU+AKt1GlbrMIG3Q7qi3jePNjst
wMCYrD8yTPRBGxL58VW9VqW47CC3HQs5HtJrkeinmJgJxt966worhZqtxeI2AKHO
NKcJl/xbfON06zWbGx6MY4ZV0GqNquffQ/s9C9iRkSztQipW5FcYPuuY+jfBF60r
GSLZ78JufKyA8VJ3sSH8JXLuF7D3UVv/O+CdTOBwYc1/+ZULJ2hB28+EqOr+cBhI
lK8dfjfyHJgA5LmqItSkUim8qqCx9cvwK+xmHTYnhN7zMvjvcBB21Fjr3kJ78SfQ
u5WQ05Dqy54SPzikMOfdsouwbABFJ3bzmDWTSZEZjj7IZ3MNzwGDlVzn8crH/qpx
MtFYCKImkWcmMXOFt8M9aWo3S5WZUWOlcpTu/qsWU1HvQ13sKgaIh28zN4uxINQa
VaXIMQCcle5DYsic5JgvT6YIKLrvyEAnTfMjm5MSVBVi2se2MpVF8D8gXAoYGaag
hm3HIPZ+IS+GF00opjewYQ25KSNTig1fPV2gXVL0Q69nNzioHR3/E49kg5O4tDeG
jSoXAgMBAAGjggHFMIIBwTAtBgNVHR8EJjAkMCKgIKAehhxodHRwOi8vYXNrdWcu
bmV0L3BraS9jcmwucGVtMAkGA1UdEwQCMAAwHQYDVR0OBBYEFCBW4w2Cdl2IeJB9
2WIB6sY9T0SnMIHkBgNVHSMEgdwwgdmAFIDhNK5vN0rcdOrC2urRNLhw+aD+oYGq
pIGnMIGkMQswCQYDVQQGEwJSVTEaMBgGA1UECAwRU3ZlcmRsb3ZzayByZWdpb24x
FjAUBgNVBAcMDVlla2F0ZXJpbmJ1cmcxEzARBgNVBAoMCkFza3VnIEx0ZC4xFjAU
BgNVBAsMDUlUIERlcGFydG1lbnQxFDASBgNVBAMMC2NhLmFza3VnLnJ1MR4wHAYJ
KoZIhvcNAQkBFg9hZG1pbkBhc2t1Zy5uZXSCFFwjgXClQZKU3FH3kcPirpQzVzch
MBMGA1UdJQQMMAoGCCsGAQUFBwMBMAsGA1UdDwQEAwIE8DAtBglghkgBhvhCAQ0E
IBYeQXNrdWcgQ0EgR2VuZXJhdGVkIENlcnRpZmljYXRlMBEGCWCGSAGG+EIBAQQE
AwIGQDAbBgNVHREEFDASghAzLmxkYXAuYXNrdWcubmV0MA0GCSqGSIb3DQEBCwUA
A4ICAQAUicbpdGO+ObTRMcJj6aw9t9o1F/2BTheBp5iRqrQ8u7QqpRDYjSsCJDbW
4GyajlxRTnsgtp5UgTxQW9Q0rmdT6DLYXpV8Y5TBpZJ4fO5J3BaMQaTwkbGEPaj6
sGk9p2tns8+CoSYbUZ7SuKY4RQq0uQPA4Kodi7h+20ZAkDJkXTdw/dBVPvHTnQKs
WZmkNVqBkRohdz7Ph12fWfqyWCC+nwrGUZbspngtdQd5pj3/5Je1CGJIhFUz3iPN
neb5rO/k4BVF4jw2PyZ0T9rchmYBBR2va15pp14Qqw6HyQ9N1s3mUPvgh7SpUdW5
dJqs/8EtNnrtwG7RKW7Ul994CvsCMlhpfU83BtA8tuzjUd+9oB0gzZxmmg77ZYNM
Jpv0cR6KCb3Qd0ym16B04hYXzk5CbsBcrij7EMHGC4lDYr7pfeQ5+NuOGuCLxV/E
NTwjqlv5mGU8n8U5YHt+nCxMkJitF4im97ajx9FVB57g3FHHv7sv2mExCAxEblxs
rgN+J+OqyyeFie3Y+7Ufz/fKGWvmgrx3A9i0FqcMhAbeUGHYlyWx+C9lb0GsDrpf
MUlL7T8Y9oBvz2M8tx3MrAxHX1RVVTUIyhk8Soeogy9yEkpN809tSsZrzLaq9dbS
HuecZvSQxPURUxuS/FVRX3Tg1xX49oagyEhJo0Pj+7lvTx+m1A==
-----END CERTIFICATE-----
