Certificate:
    Data:
        Version: 3 (0x2)
        Serial Number:
            e0:92:41:ee:4a:d9:a9:fb:41:4d:2f:db:6e:be:4c:89
        Signature Algorithm: sha256WithRSAEncryption
        Issuer: C=RU, ST=Sverdlovsk region, L=Yekaterinburg, O=Askug Ltd., OU=IT Department, CN=ca.askug.ru/emailAddress=admin@askug.net
        Validity
            Not Before: Jul  8 05:53:15 2021 GMT
            Not After : Jun 22 05:53:15 2024 GMT
        Subject: C=RU, ST=Sverdlovsk region, L=Yekaterinburg, O=Askug Ltd., OU=IT Department, CN=master.ldap.askug.net/emailAddress=admin@askug.net
        Subject Public Key Info:
            Public Key Algorithm: rsaEncryption
                RSA Public-Key: (4096 bit)
                Modulus:
                    00:d2:50:ff:80:30:38:3a:2b:25:cf:5f:13:fb:58:
                    f1:5d:a5:d3:15:47:32:fb:dd:e4:8d:73:cd:e7:70:
                    f4:d5:94:5e:4a:8c:93:85:ff:c8:43:b6:bb:3b:f2:
                    c9:41:8a:f5:26:0a:5e:99:d8:af:06:1b:63:7a:d8:
                    3a:2d:43:c0:07:eb:8d:15:52:3e:48:0a:f7:c5:84:
                    02:e0:c0:63:cb:5e:9e:ba:d1:22:d3:84:ce:a6:f6:
                    ac:db:9d:da:b8:e8:60:be:07:82:e6:e0:6a:4a:5b:
                    16:71:f0:af:bf:f3:d5:88:be:4c:93:4e:6c:ea:9a:
                    49:b1:b3:10:b6:8a:f3:3d:c0:65:23:44:08:f2:e0:
                    3a:08:9f:be:7a:d7:36:5f:b9:a7:82:51:45:d0:8d:
                    8d:57:be:47:19:bb:ce:44:5f:08:ae:1a:88:de:16:
                    38:c8:07:0b:6b:d0:d6:06:81:12:70:60:ce:d8:6f:
                    cd:ae:99:b1:15:b3:5d:af:94:6e:9f:33:9b:18:01:
                    6d:77:dc:70:60:55:1a:c0:b0:50:ce:9d:a1:96:01:
                    bd:9f:2b:59:a7:b0:2f:38:19:d5:b6:82:7f:df:fd:
                    35:5d:64:0c:63:45:0a:2b:f4:a2:90:a5:95:d4:c2:
                    d3:c6:ce:35:91:a6:5a:f7:dd:b4:7e:61:8b:b8:f0:
                    21:d8:db:3f:aa:a5:f5:4c:1d:ea:cf:5a:d6:bd:54:
                    25:24:e1:9a:60:eb:09:5a:47:c4:92:5c:5c:64:1a:
                    90:35:5a:61:f8:a7:05:62:dd:82:b0:f8:e2:95:5a:
                    7a:a4:7e:8a:ca:38:f8:59:86:81:0b:8d:23:c4:90:
                    ed:9d:76:ca:0f:d2:28:ed:6c:9b:e6:53:00:b5:1d:
                    c9:7d:fc:33:a5:bb:a2:45:f5:dc:1e:a9:f7:81:34:
                    c1:fb:ad:c0:0c:b9:c4:b9:a4:74:0f:e7:cc:f0:b5:
                    7e:88:59:59:08:c2:10:5d:99:b2:b1:cc:ea:f8:0c:
                    c9:71:e3:cc:6e:71:c1:a2:64:4b:6a:3f:30:db:ee:
                    91:6c:1e:73:11:8e:24:85:25:d0:50:f5:cb:bf:38:
                    89:92:f7:4e:a4:8a:4e:d2:af:96:60:ce:b6:79:3f:
                    43:5a:86:1a:7a:71:1a:b1:5c:7c:d0:42:c5:bc:f5:
                    8a:eb:ed:69:b3:b5:23:bc:f8:c8:da:99:1f:3f:6d:
                    87:ba:f5:39:4f:0a:62:f7:72:e2:e8:58:4a:6f:4f:
                    55:02:58:20:de:f4:9f:f5:39:7b:b0:e4:67:ca:ac:
                    80:24:61:d2:ac:38:5c:fe:65:db:98:67:5b:e1:68:
                    0a:42:62:f7:7d:56:d3:cb:ab:fa:ed:aa:0b:ae:72:
                    ba:15:4f
                Exponent: 65537 (0x10001)
        X509v3 extensions:
            X509v3 CRL Distribution Points: 

                Full Name:
                  URI:http://askug.net/pki/crl.pem

            X509v3 Basic Constraints: 
                CA:FALSE
            X509v3 Subject Key Identifier: 
                84:AD:46:57:F7:97:64:82:63:B9:4D:C3:F3:49:6F:37:3B:E6:33:FA
            X509v3 Authority Key Identifier: 
                keyid:80:E1:34:AE:6F:37:4A:DC:74:EA:C2:DA:EA:D1:34:B8:70:F9:A0:FE
                DirName:/C=RU/ST=Sverdlovsk region/L=Yekaterinburg/O=Askug Ltd./OU=IT Department/CN=ca.askug.ru/emailAddress=admin@askug.net
                serial:5C:23:81:70:A5:41:92:94:DC:51:F7:91:C3:E2:AE:94:33:57:37:21

            X509v3 Extended Key Usage: 
                TLS Web Server Authentication
            X509v3 Key Usage: 
                Digital Signature, Non Repudiation, Key Encipherment, Data Encipherment
            Netscape Comment: 
                Askug CA Generated Certificate
            Netscape Cert Type: 
                SSL Server
            X509v3 Subject Alternative Name: 
                DNS:master.ldap.askug.net
    Signature Algorithm: sha256WithRSAEncryption
         ae:2e:98:79:35:07:a2:fc:a4:87:6c:e5:3b:7d:3b:b4:a3:27:
         f2:87:58:94:88:18:62:bc:8c:64:25:e3:69:ae:1a:89:98:d6:
         a1:7f:94:6b:8c:5b:83:49:f0:3c:07:7d:e8:c1:64:ac:c1:6d:
         07:75:0c:77:62:e0:c6:03:e2:b6:06:ad:9d:e9:de:0c:54:05:
         ef:10:51:fd:f6:a3:8d:2d:d1:b5:4a:cb:66:b7:a4:36:37:18:
         4d:6c:a2:62:17:c6:1a:9f:f6:8e:5d:7b:dc:7b:e4:a3:2a:53:
         b8:f1:42:08:9c:29:5d:c0:ab:0b:96:cb:4a:a5:a3:c7:3c:1b:
         3d:95:4d:24:db:4b:1a:10:2b:73:02:0e:3c:b9:f6:75:e5:12:
         a4:83:14:78:0a:84:c6:93:ce:da:19:0e:f4:c6:c7:04:70:e4:
         7f:6a:5a:e1:20:3b:1e:ec:2a:ee:10:1c:cd:f0:8b:2c:b3:5a:
         b9:4a:55:af:4c:ce:04:a2:e0:76:19:92:5d:4f:90:e2:32:9e:
         82:e9:b9:3b:b5:fb:d6:13:ff:9f:b6:0f:c8:ac:6c:55:c0:92:
         db:11:7e:8d:b6:20:b7:cd:8d:0d:83:bb:37:09:76:3c:15:95:
         5d:a8:4b:88:18:ed:a6:6f:07:f6:8e:de:7a:4f:eb:bc:07:6f:
         49:1e:be:ab:e9:fc:90:ca:4d:5a:66:4c:da:fb:c3:f3:fa:d6:
         d1:d9:c7:ef:bd:16:d6:17:44:24:30:f4:65:31:25:91:8d:63:
         1a:2d:e7:e8:dd:a7:7b:95:09:25:03:27:4a:3a:6f:7f:34:92:
         e3:7d:30:f9:bc:75:71:e5:e0:2e:cf:ab:6b:ef:0d:79:b0:9d:
         0a:e0:03:52:66:24:20:9d:d7:80:08:4c:68:54:1e:f7:21:72:
         1a:f8:1d:7e:9e:eb:2b:b6:0e:8d:65:0d:9e:f8:c9:4c:54:bd:
         2f:91:06:c8:d2:42:5a:d5:de:5e:40:2b:b2:04:f8:aa:73:b3:
         37:f4:84:16:52:80:0a:56:ec:b3:31:93:c6:d6:e7:51:3a:73:
         d1:ab:12:2e:7e:fd:ca:c9:33:11:42:0c:34:d4:77:c7:71:a3:
         09:0a:c3:17:3f:73:b4:b7:65:d4:6c:b0:25:87:a0:3c:d4:e4:
         c3:ef:ad:6f:e8:e1:c3:73:85:3b:ae:dc:d3:bb:65:0e:b0:8a:
         17:bc:f9:34:b8:07:97:28:22:93:47:4b:ab:3f:ba:09:1b:b4:
         3d:a4:66:c0:e5:a2:f0:18:ee:a8:63:b2:7e:23:ce:3e:19:8e:
         f8:53:9f:24:12:37:b7:4d:85:6f:be:28:85:a4:9d:e8:11:ad:
         45:bb:41:37:b1:fc:32:f8
-----BEGIN CERTIFICATE-----
MIIHqzCCBZOgAwIBAgIRAOCSQe5K2an7QU0v226+TIkwDQYJKoZIhvcNAQELBQAw
gaQxCzAJBgNVBAYTAlJVMRowGAYDVQQIDBFTdmVyZGxvdnNrIHJlZ2lvbjEWMBQG
A1UEBwwNWWVrYXRlcmluYnVyZzETMBEGA1UECgwKQXNrdWcgTHRkLjEWMBQGA1UE
CwwNSVQgRGVwYXJ0bWVudDEUMBIGA1UEAwwLY2EuYXNrdWcucnUxHjAcBgkqhkiG
9w0BCQEWD2FkbWluQGFza3VnLm5ldDAeFw0yMTA3MDgwNTUzMTVaFw0yNDA2MjIw
NTUzMTVaMIGuMQswCQYDVQQGEwJSVTEaMBgGA1UECAwRU3ZlcmRsb3ZzayByZWdp
b24xFjAUBgNVBAcMDVlla2F0ZXJpbmJ1cmcxEzARBgNVBAoMCkFza3VnIEx0ZC4x
FjAUBgNVBAsMDUlUIERlcGFydG1lbnQxHjAcBgNVBAMMFW1hc3Rlci5sZGFwLmFz
a3VnLm5ldDEeMBwGCSqGSIb3DQEJARYPYWRtaW5AYXNrdWcubmV0MIICIjANBgkq
hkiG9w0BAQEFAAOCAg8AMIICCgKCAgEA0lD/gDA4Oislz18T+1jxXaXTFUcy+93k
jXPN53D01ZReSoyThf/IQ7a7O/LJQYr1JgpemdivBhtjetg6LUPAB+uNFVI+SAr3
xYQC4MBjy16eutEi04TOpvas253auOhgvgeC5uBqSlsWcfCvv/PViL5Mk05s6ppJ
sbMQtorzPcBlI0QI8uA6CJ++etc2X7mnglFF0I2NV75HGbvORF8IrhqI3hY4yAcL
a9DWBoEScGDO2G/NrpmxFbNdr5RunzObGAFtd9xwYFUawLBQzp2hlgG9nytZp7Av
OBnVtoJ/3/01XWQMY0UKK/SikKWV1MLTxs41kaZa9920fmGLuPAh2Ns/qqX1TB3q
z1rWvVQlJOGaYOsJWkfEklxcZBqQNVph+KcFYt2CsPjilVp6pH6Kyjj4WYaBC40j
xJDtnXbKD9Io7Wyb5lMAtR3JffwzpbuiRfXcHqn3gTTB+63ADLnEuaR0D+fM8LV+
iFlZCMIQXZmysczq+AzJcePMbnHBomRLaj8w2+6RbB5zEY4khSXQUPXLvziJkvdO
pIpO0q+WYM62eT9DWoYaenEasVx80ELFvPWK6+1ps7UjvPjI2pkfP22HuvU5Twpi
93Li6FhKb09VAlgg3vSf9Tl7sORnyqyAJGHSrDhc/mXbmGdb4WgKQmL3fVbTy6v6
7aoLrnK6FU8CAwEAAaOCAcowggHGMC0GA1UdHwQmMCQwIqAgoB6GHGh0dHA6Ly9h
c2t1Zy5uZXQvcGtpL2NybC5wZW0wCQYDVR0TBAIwADAdBgNVHQ4EFgQUhK1GV/eX
ZIJjuU3D80lvNzvmM/owgeQGA1UdIwSB3DCB2YAUgOE0rm83Stx06sLa6tE0uHD5
oP6hgaqkgacwgaQxCzAJBgNVBAYTAlJVMRowGAYDVQQIDBFTdmVyZGxvdnNrIHJl
Z2lvbjEWMBQGA1UEBwwNWWVrYXRlcmluYnVyZzETMBEGA1UECgwKQXNrdWcgTHRk
LjEWMBQGA1UECwwNSVQgRGVwYXJ0bWVudDEUMBIGA1UEAwwLY2EuYXNrdWcucnUx
HjAcBgkqhkiG9w0BCQEWD2FkbWluQGFza3VnLm5ldIIUXCOBcKVBkpTcUfeRw+Ku
lDNXNyEwEwYDVR0lBAwwCgYIKwYBBQUHAwEwCwYDVR0PBAQDAgTwMC0GCWCGSAGG
+EIBDQQgFh5Bc2t1ZyBDQSBHZW5lcmF0ZWQgQ2VydGlmaWNhdGUwEQYJYIZIAYb4
QgEBBAQDAgZAMCAGA1UdEQQZMBeCFW1hc3Rlci5sZGFwLmFza3VnLm5ldDANBgkq
hkiG9w0BAQsFAAOCAgEAri6YeTUHovykh2zlO307tKMn8odYlIgYYryMZCXjaa4a
iZjWoX+Ua4xbg0nwPAd96MFkrMFtB3UMd2LgxgPitgatneneDFQF7xBR/fajjS3R
tUrLZrekNjcYTWyiYhfGGp/2jl173HvkoypTuPFCCJwpXcCrC5bLSqWjxzwbPZVN
JNtLGhArcwIOPLn2deUSpIMUeAqExpPO2hkO9MbHBHDkf2pa4SA7Huwq7hAczfCL
LLNauUpVr0zOBKLgdhmSXU+Q4jKegum5O7X71hP/n7YPyKxsVcCS2xF+jbYgt82N
DYO7Nwl2PBWVXahLiBjtpm8H9o7eek/rvAdvSR6+q+n8kMpNWmZM2vvD8/rW0dnH
770W1hdEJDD0ZTElkY1jGi3n6N2ne5UJJQMnSjpvfzSS430w+bx1ceXgLs+ra+8N
ebCdCuADUmYkIJ3XgAhMaFQe9yFyGvgdfp7rK7YOjWUNnvjJTFS9L5EGyNJCWtXe
XkArsgT4qnOzN/SEFlKAClbsszGTxtbnUTpz0asSLn79yskzEUIMNNR3x3GjCQrD
Fz9ztLdl1GywJYegPNTkw++tb+jhw3OFO67c07tlDrCKF7z5NLgHlygik0dLqz+6
CRu0PaRmwOWi8BjuqGOyfiPOPhmO+FOfJBI3t02Fb74ohaSd6BGtRbtBN7H8Mvg=
-----END CERTIFICATE-----
